(lp1
S'./neuron_info.jsp?neuron_name=VPM_1'
p2
aS'./neuron_info.jsp?neuron_name=cZI_2'
p3
aS'./neuron_info.jsp?neuron_name=cZI_3'
p4
aS'./neuron_info.jsp?neuron_name=dZI_1'
p5
aS'./neuron_info.jsp?neuron_name=dZI_3'
p6
aS'./neuron_info.jsp?neuron_name=dZI_4'
p7
aS'./neuron_info.jsp?neuron_name=dZI_6'
p8
aS'./neuron_info.jsp?neuron_name=vZI_2'
p9
aS'./neuron_info.jsp?neuron_name=02a_pyramidal2aFI'
p10
aS'./neuron_info.jsp?neuron_name=02b_pyramidal1aACC'
p11
aS'./neuron_info.jsp?neuron_name=02b_pyramidal1aFI'
p12
aS'./neuron_info.jsp?neuron_name=03a_pyramidal9aFI'
p13
aS'./neuron_info.jsp?neuron_name=03b_pyramidal2aACC'
p14
aS'./neuron_info.jsp?neuron_name=03b_pyramidal3aACC'
p15
aS'./neuron_info.jsp?neuron_name=03b_pyramidal3aFI'
p16
aS'./neuron_info.jsp?neuron_name=03b_pyramidal4aFI'
p17
aS'./neuron_info.jsp?neuron_name=03b_pyramidal9aFI'
p18
aS'./neuron_info.jsp?neuron_name=04a_pyramidal4aACC'
p19
aS'./neuron_info.jsp?neuron_name=04a_pyramidal5aACC'
p20
aS'./neuron_info.jsp?neuron_name=04b_pyramidal5aFI'
p21
aS'./neuron_info.jsp?neuron_name=04b_pyramidal6aACC'
p22
aS'./neuron_info.jsp?neuron_name=04b_pyramidal6aFI'
p23
aS'./neuron_info.jsp?neuron_name=04b_pyramidal7aACC'
p24
aS'./neuron_info.jsp?neuron_name=05a_pyramidal10aACC'
p25
aS'./neuron_info.jsp?neuron_name=05a_pyramidal8aACC'
p26
aS'./neuron_info.jsp?neuron_name=05b_pyramidal7aFI'
p27
aS'./neuron_info.jsp?neuron_name=05b_pyramidal8aFI'
p28
aS'./neuron_info.jsp?neuron_name=05b_pyramidal9aACC'
p29
aS'./neuron_info.jsp?neuron_name=06a_pyramidal11aACC'
p30
aS'./neuron_info.jsp?neuron_name=06b_pyramidal10aFI'
p31
aS'./neuron_info.jsp?neuron_name=06b_pyramidal12aACC'
p32
aS'./neuron_info.jsp?neuron_name=07b_pyramidal14aACC'
p33
aS'./neuron_info.jsp?neuron_name=08o_pyramidal11aFI'
p34
aS'./neuron_info.jsp?neuron_name=10a_pyramidal15aACC'
p35
aS'./neuron_info.jsp?neuron_name=11a_pyramidal16aACC'
p36
aS'./neuron_info.jsp?neuron_name=11o_pyramidal12aFI'
p37
aS'./neuron_info.jsp?neuron_name=17o_pyramidal13aFI'
p38
aS'./neuron_info.jsp?neuron_name=18o_pyramidal14aFI'
p39
aS'./neuron_info.jsp?neuron_name=20o_pyramidal15aFI'
p40
aS'./neuron_info.jsp?neuron_name=22o_pyramidal16aFI'
p41
aS'./neuron_info.jsp?neuron_name=24o_pyramidal17aFI'
p42
aS'./neuron_info.jsp?neuron_name=25o_pyramidal18aFI'
p43
aS'./neuron_info.jsp?neuron_name=31o_pyramidal19aFI'
p44
aS'./neuron_info.jsp?neuron_name=03a_spindle2aFI'
p45
aS'./neuron_info.jsp?neuron_name=03a_spindle6aFI'
p46
aS'./neuron_info.jsp?neuron_name=03b_spindle4aACC'
p47
aS'./neuron_info.jsp?neuron_name=03b_spindle5aACC'
p48
aS'./neuron_info.jsp?neuron_name=03b_spindle6aACC'
p49
aS'./neuron_info.jsp?neuron_name=03b_spindle7aACC'
p50
aS'./neuron_info.jsp?neuron_name=04b_spindle3aFI'
p51
aS'./neuron_info.jsp?neuron_name=05b_spindle5aFI'
p52
aS'./neuron_info.jsp?neuron_name=06b_spindle8aACC'
p53
aS'./neuron_info.jsp?neuron_name=07b_spindle9aACC'
p54
aS'./neuron_info.jsp?neuron_name=08a_spindle13aACC'
p55
aS'./neuron_info.jsp?neuron_name=09o_spindle7aFI'
p56
aS'./neuron_info.jsp?neuron_name=09o_spindle8aFI'
p57
aS'./neuron_info.jsp?neuron_name=10a_spindle18aACC'
p58
aS'./neuron_info.jsp?neuron_name=12a_spindle19aACC'
p59
aS'./neuron_info.jsp?neuron_name=12o_spindle9aFI'
p60
aS'./neuron_info.jsp?neuron_name=13o_spindle10aFI'
p61
aS'./neuron_info.jsp?neuron_name=15o_spindle12aFI'
p62
aS'./neuron_info.jsp?neuron_name=16o_spindle13aFI'
p63
aS'./neuron_info.jsp?neuron_name=19o_spindle14aFI'
p64
aS'./neuron_info.jsp?neuron_name=21o_spindle15aFI'
p65
aS'./neuron_info.jsp?neuron_name=23o_spindle16aFI'
p66
aS'./neuron_info.jsp?neuron_name=25o_spindle17aFI'
p67
aS'./neuron_info.jsp?neuron_name=26o_spindle18aFI'
p68
aS'./neuron_info.jsp?neuron_name=27o_spindle19aFI'
p69
aS'./neuron_info.jsp?neuron_name=28o_spindle20aFI'
p70
aS'./neuron_info.jsp?neuron_name=28o_spindle21aFI'
p71
aS'./neuron_info.jsp?neuron_name=29o_spindle22aFI'
p72
aS'./neuron_info.jsp?neuron_name=30o_spindle23aFI'
p73
aS'./neuron_info.jsp?neuron_name=SNc-071220-120'
p74
aS'./neuron_info.jsp?neuron_name=SNc-071220-121A'
p75
aS'./neuron_info.jsp?neuron_name=SNc-071220-121B'
p76
aS'./neuron_info.jsp?neuron_name=SNc-080225-123'
p77
aS'./neuron_info.jsp?neuron_name=SNc-080311-129'
p78
aS'./neuron_info.jsp?neuron_name=SNc-080312-132'
p79
aS'./neuron_info.jsp?neuron_name=c20466'
p80
aS'./neuron_info.jsp?neuron_name=KO-1-DIV-TTb'
p81
aS'./neuron_info.jsp?neuron_name=KO-1DIV-TTa'
p82
aS'./neuron_info.jsp?neuron_name=KO-1DIV-TTc'
p83
aS'./neuron_info.jsp?neuron_name=KO-22DIV-MAP2'
p84
aS'./neuron_info.jsp?neuron_name=WT-1DIV-TT'
p85
aS'./neuron_info.jsp?neuron_name=WT-22DIV-MAP2'
p86
aS'./neuron_info.jsp?neuron_name=CA1-P-P21-1'
p87
aS'./neuron_info.jsp?neuron_name=CA1-P-P21-2'
p88
aS'./neuron_info.jsp?neuron_name=CA1-P-P7-1'
p89
aS'./neuron_info.jsp?neuron_name=CA1-P-P7-2'
p90
aS'./neuron_info.jsp?neuron_name=CA1-P-P7-3'
p91
aS'./neuron_info.jsp?neuron_name=CA1-P-P7-4'
p92
aS'./neuron_info.jsp?neuron_name=CA1-P-P9-1'
p93
aS'./neuron_info.jsp?neuron_name=CA1-P-P9-2'
p94
aS'./neuron_info.jsp?neuron_name=CA2-P-P21-1'
p95
aS'./neuron_info.jsp?neuron_name=CA2-P-P45'
p96
aS'./neuron_info.jsp?neuron_name=CA2-P-P7'
p97
aS'./neuron_info.jsp?neuron_name=CA2-P-P8-1'
p98
aS'./neuron_info.jsp?neuron_name=CA2-P-P8-2'
p99
aS'./neuron_info.jsp?neuron_name=CA2-P-P8-3'
p100
aS'./neuron_info.jsp?neuron_name=CA2-P-P9-1'
p101
aS'./neuron_info.jsp?neuron_name=CA2-P-P9-2'
p102
aS'./neuron_info.jsp?neuron_name=CA1-W-P14'
p103
aS'./neuron_info.jsp?neuron_name=CA1-W-P15-1'
p104
aS'./neuron_info.jsp?neuron_name=CA2-W-P13'
p105
aS'./neuron_info.jsp?neuron_name=CA2-W-P14'
p106
aS'./neuron_info.jsp?neuron_name=CA2-W-P15-1'
p107
aS'./neuron_info.jsp?neuron_name=CA2-W-P15-2'
p108
aS'./neuron_info.jsp?neuron_name=CA2-W-P15-3'
p109
aS'./neuron_info.jsp?neuron_name=CA2-W-P15-4'
p110
aS'./neuron_info.jsp?neuron_name=ok_m140mod'
p111
aS'./neuron_info.jsp?neuron_name=NPY-090'
p112
aS'./neuron_info.jsp?neuron_name=n10fts'
p113
aS'./neuron_info.jsp?neuron_name=n11fts'
p114
aS'./neuron_info.jsp?neuron_name=n12fts'
p115
aS'./neuron_info.jsp?neuron_name=n13fts'
p116
aS'./neuron_info.jsp?neuron_name=n14fts'
p117
aS'./neuron_info.jsp?neuron_name=n15fts'
p118
aS'./neuron_info.jsp?neuron_name=n16fts'
p119
aS'./neuron_info.jsp?neuron_name=n17fts'
p120
aS'./neuron_info.jsp?neuron_name=n18fts'
p121
aS'./neuron_info.jsp?neuron_name=n19fts'
p122
aS'./neuron_info.jsp?neuron_name=n1fts'
p123
aS'./neuron_info.jsp?neuron_name=n20fts'
p124
aS'./neuron_info.jsp?neuron_name=n21fts'
p125
aS'./neuron_info.jsp?neuron_name=n22fts'
p126
aS'./neuron_info.jsp?neuron_name=n23fts'
p127
aS'./neuron_info.jsp?neuron_name=n24fts'
p128
aS'./neuron_info.jsp?neuron_name=n25fts'
p129
aS'./neuron_info.jsp?neuron_name=n26fts'
p130
aS'./neuron_info.jsp?neuron_name=n27fts'
p131
aS'./neuron_info.jsp?neuron_name=n28fts'
p132
aS'./neuron_info.jsp?neuron_name=n29fts'
p133
aS'./neuron_info.jsp?neuron_name=n2fts'
p134
aS'./neuron_info.jsp?neuron_name=n3fts'
p135
aS'./neuron_info.jsp?neuron_name=n4fts'
p136
aS'./neuron_info.jsp?neuron_name=n5fts'
p137
aS'./neuron_info.jsp?neuron_name=n6fts'
p138
aS'./neuron_info.jsp?neuron_name=n7fts'
p139
aS'./neuron_info.jsp?neuron_name=n8fts'
p140
aS'./neuron_info.jsp?neuron_name=n9fts'
p141
aS'./neuron_info.jsp?neuron_name=NM1'
p142
aS'./neuron_info.jsp?neuron_name=NM2'
p143
aS'./neuron_info.jsp?neuron_name=RC22-P1F8C4L-3-Vc-cs-Sh'
p144
aS'./neuron_info.jsp?neuron_name=H091127-2'
p145
aS'./neuron_info.jsp?neuron_name=A9-1'
p146
aS'./neuron_info.jsp?neuron_name=A9-10'
p147
aS'./neuron_info.jsp?neuron_name=A9-11'
p148
aS'./neuron_info.jsp?neuron_name=A9-12'
p149
aS'./neuron_info.jsp?neuron_name=A9-13'
p150
aS'./neuron_info.jsp?neuron_name=A9-14'
p151
aS'./neuron_info.jsp?neuron_name=A9-15'
p152
aS'./neuron_info.jsp?neuron_name=A9-16'
p153
aS'./neuron_info.jsp?neuron_name=A9-17'
p154
aS'./neuron_info.jsp?neuron_name=A9-18'
p155
aS'./neuron_info.jsp?neuron_name=A9-19'
p156
aS'./neuron_info.jsp?neuron_name=A9-2'
p157
aS'./neuron_info.jsp?neuron_name=A9-20'
p158
aS'./neuron_info.jsp?neuron_name=A9-21'
p159
aS'./neuron_info.jsp?neuron_name=A9-22'
p160
aS'./neuron_info.jsp?neuron_name=A9-23'
p161
aS'./neuron_info.jsp?neuron_name=A9-24'
p162
aS'./neuron_info.jsp?neuron_name=A9-25'
p163
aS'./neuron_info.jsp?neuron_name=A9-26'
p164
aS'./neuron_info.jsp?neuron_name=A9-27'
p165
aS'./neuron_info.jsp?neuron_name=A9-3'
p166
aS'./neuron_info.jsp?neuron_name=A9-4'
p167
aS'./neuron_info.jsp?neuron_name=A9-5'
p168
aS'./neuron_info.jsp?neuron_name=A9-6'
p169
aS'./neuron_info.jsp?neuron_name=A9-7'
p170
aS'./neuron_info.jsp?neuron_name=A9-8'
p171
aS'./neuron_info.jsp?neuron_name=A9-9'
p172
aS'./neuron_info.jsp?neuron_name=B8-1'
p173
aS'./neuron_info.jsp?neuron_name=B8-10'
p174
aS'./neuron_info.jsp?neuron_name=B8-11'
p175
aS'./neuron_info.jsp?neuron_name=B8-12'
p176
aS'./neuron_info.jsp?neuron_name=B8-13'
p177
aS'./neuron_info.jsp?neuron_name=B8-14'
p178
aS'./neuron_info.jsp?neuron_name=B8-15'
p179
aS'./neuron_info.jsp?neuron_name=B8-16'
p180
aS'./neuron_info.jsp?neuron_name=B8-17'
p181
aS'./neuron_info.jsp?neuron_name=B8-18'
p182
aS'./neuron_info.jsp?neuron_name=B8-19'
p183
aS'./neuron_info.jsp?neuron_name=B8-2'
p184
aS'./neuron_info.jsp?neuron_name=B8-20'
p185
aS'./neuron_info.jsp?neuron_name=B8-21'
p186
aS'./neuron_info.jsp?neuron_name=B8-22'
p187
aS'./neuron_info.jsp?neuron_name=B8-23'
p188
aS'./neuron_info.jsp?neuron_name=B8-24'
p189
aS'./neuron_info.jsp?neuron_name=B8-25'
p190
aS'./neuron_info.jsp?neuron_name=B8-3'
p191
aS'./neuron_info.jsp?neuron_name=B8-4'
p192
aS'./neuron_info.jsp?neuron_name=B8-5'
p193
aS'./neuron_info.jsp?neuron_name=B8-6'
p194
aS'./neuron_info.jsp?neuron_name=B8-7'
p195
aS'./neuron_info.jsp?neuron_name=B8-8'
p196
aS'./neuron_info.jsp?neuron_name=B8-9'
p197
aS'./neuron_info.jsp?neuron_name=C10-1'
p198
aS'./neuron_info.jsp?neuron_name=C10-10'
p199
aS'./neuron_info.jsp?neuron_name=C10-11'
p200
aS'./neuron_info.jsp?neuron_name=C10-12'
p201
aS'./neuron_info.jsp?neuron_name=C10-13'
p202
aS'./neuron_info.jsp?neuron_name=C10-14'
p203
aS'./neuron_info.jsp?neuron_name=C10-15'
p204
aS'./neuron_info.jsp?neuron_name=C10-16'
p205
aS'./neuron_info.jsp?neuron_name=C10-17'
p206
aS'./neuron_info.jsp?neuron_name=C10-18'
p207
aS'./neuron_info.jsp?neuron_name=C10-19'
p208
aS'./neuron_info.jsp?neuron_name=C10-2'
p209
aS'./neuron_info.jsp?neuron_name=C10-20'
p210
aS'./neuron_info.jsp?neuron_name=C10-21'
p211
aS'./neuron_info.jsp?neuron_name=C10-22'
p212
aS'./neuron_info.jsp?neuron_name=C10-23'
p213
aS'./neuron_info.jsp?neuron_name=C10-24'
p214
aS'./neuron_info.jsp?neuron_name=C10-25'
p215
aS'./neuron_info.jsp?neuron_name=C10-26'
p216
aS'./neuron_info.jsp?neuron_name=C10-27'
p217
aS'./neuron_info.jsp?neuron_name=C10-28'
p218
aS'./neuron_info.jsp?neuron_name=C10-29'
p219
aS'./neuron_info.jsp?neuron_name=C10-3'
p220
aS'./neuron_info.jsp?neuron_name=C10-30'
p221
aS'./neuron_info.jsp?neuron_name=C10-31'
p222
aS'./neuron_info.jsp?neuron_name=C10-32'
p223
aS'./neuron_info.jsp?neuron_name=C10-33'
p224
aS'./neuron_info.jsp?neuron_name=C10-4'
p225
aS'./neuron_info.jsp?neuron_name=C10-5'
p226
aS'./neuron_info.jsp?neuron_name=C10-6'
p227
aS'./neuron_info.jsp?neuron_name=C10-7'
p228
aS'./neuron_info.jsp?neuron_name=C10-8'
p229
aS'./neuron_info.jsp?neuron_name=C10-9'
p230
aS'./neuron_info.jsp?neuron_name=D1-1'
p231
aS'./neuron_info.jsp?neuron_name=D1-10'
p232
aS'./neuron_info.jsp?neuron_name=D1-11'
p233
aS'./neuron_info.jsp?neuron_name=D1-12'
p234
aS'./neuron_info.jsp?neuron_name=D1-13'
p235
aS'./neuron_info.jsp?neuron_name=D1-14'
p236
aS'./neuron_info.jsp?neuron_name=D1-15'
p237
aS'./neuron_info.jsp?neuron_name=D1-16'
p238
aS'./neuron_info.jsp?neuron_name=D1-17'
p239
aS'./neuron_info.jsp?neuron_name=D1-18'
p240
aS'./neuron_info.jsp?neuron_name=D1-19'
p241
aS'./neuron_info.jsp?neuron_name=D1-2'
p242
aS'./neuron_info.jsp?neuron_name=D1-20'
p243
aS'./neuron_info.jsp?neuron_name=D1-21'
p244
aS'./neuron_info.jsp?neuron_name=D1-22'
p245
aS'./neuron_info.jsp?neuron_name=D1-23'
p246
aS'./neuron_info.jsp?neuron_name=D1-24'
p247
aS'./neuron_info.jsp?neuron_name=D1-25'
p248
aS'./neuron_info.jsp?neuron_name=D1-3'
p249
aS'./neuron_info.jsp?neuron_name=D1-4'
p250
aS'./neuron_info.jsp?neuron_name=D1-5'
p251
aS'./neuron_info.jsp?neuron_name=D1-6'
p252
aS'./neuron_info.jsp?neuron_name=D1-7'
p253
aS'./neuron_info.jsp?neuron_name=D1-8'
p254
aS'./neuron_info.jsp?neuron_name=D1-9'
p255
aS'./neuron_info.jsp?neuron_name=F7-1'
p256
aS'./neuron_info.jsp?neuron_name=F7-10'
p257
aS'./neuron_info.jsp?neuron_name=F7-11'
p258
aS'./neuron_info.jsp?neuron_name=F7-12'
p259
aS'./neuron_info.jsp?neuron_name=F7-13'
p260
aS'./neuron_info.jsp?neuron_name=F7-14'
p261
aS'./neuron_info.jsp?neuron_name=F7-15'
p262
aS'./neuron_info.jsp?neuron_name=F7-16'
p263
aS'./neuron_info.jsp?neuron_name=F7-17'
p264
aS'./neuron_info.jsp?neuron_name=F7-18'
p265
aS'./neuron_info.jsp?neuron_name=F7-19'
p266
aS'./neuron_info.jsp?neuron_name=F7-2'
p267
aS'./neuron_info.jsp?neuron_name=F7-20'
p268
aS'./neuron_info.jsp?neuron_name=F7-21'
p269
aS'./neuron_info.jsp?neuron_name=F7-3'
p270
aS'./neuron_info.jsp?neuron_name=F7-4'
p271
aS'./neuron_info.jsp?neuron_name=F7-5'
p272
aS'./neuron_info.jsp?neuron_name=F7-6'
p273
aS'./neuron_info.jsp?neuron_name=F7-7'
p274
aS'./neuron_info.jsp?neuron_name=F7-8'
p275
aS'./neuron_info.jsp?neuron_name=F7-9'
p276
aS'./neuron_info.jsp?neuron_name=G7-1'
p277
aS'./neuron_info.jsp?neuron_name=G7-10'
p278
aS'./neuron_info.jsp?neuron_name=G7-11'
p279
aS'./neuron_info.jsp?neuron_name=G7-12'
p280
aS'./neuron_info.jsp?neuron_name=G7-13'
p281
aS'./neuron_info.jsp?neuron_name=G7-14'
p282
aS'./neuron_info.jsp?neuron_name=G7-15'
p283
aS'./neuron_info.jsp?neuron_name=G7-16'
p284
aS'./neuron_info.jsp?neuron_name=G7-17'
p285
aS'./neuron_info.jsp?neuron_name=G7-18'
p286
aS'./neuron_info.jsp?neuron_name=G7-19'
p287
aS'./neuron_info.jsp?neuron_name=G7-2'
p288
aS'./neuron_info.jsp?neuron_name=G7-20'
p289
aS'./neuron_info.jsp?neuron_name=G7-21'
p290
aS'./neuron_info.jsp?neuron_name=G7-3'
p291
aS'./neuron_info.jsp?neuron_name=G7-4'
p292
aS'./neuron_info.jsp?neuron_name=G7-5'
p293
aS'./neuron_info.jsp?neuron_name=G7-6'
p294
aS'./neuron_info.jsp?neuron_name=G7-7'
p295
aS'./neuron_info.jsp?neuron_name=G7-8'
p296
aS'./neuron_info.jsp?neuron_name=G7-9'
p297
aS'./neuron_info.jsp?neuron_name=H1-1'
p298
aS'./neuron_info.jsp?neuron_name=H1-10'
p299
aS'./neuron_info.jsp?neuron_name=H1-11'
p300
aS'./neuron_info.jsp?neuron_name=H1-12'
p301
aS'./neuron_info.jsp?neuron_name=H1-13'
p302
aS'./neuron_info.jsp?neuron_name=H1-14'
p303
aS'./neuron_info.jsp?neuron_name=H1-15'
p304
aS'./neuron_info.jsp?neuron_name=H1-16'
p305
aS'./neuron_info.jsp?neuron_name=H1-17'
p306
aS'./neuron_info.jsp?neuron_name=H1-18'
p307
aS'./neuron_info.jsp?neuron_name=H1-19'
p308
aS'./neuron_info.jsp?neuron_name=H1-2'
p309
aS'./neuron_info.jsp?neuron_name=H1-3'
p310
aS'./neuron_info.jsp?neuron_name=H1-4'
p311
aS'./neuron_info.jsp?neuron_name=H1-5'
p312
aS'./neuron_info.jsp?neuron_name=H1-6'
p313
aS'./neuron_info.jsp?neuron_name=H1-7'
p314
aS'./neuron_info.jsp?neuron_name=H1-8'
p315
aS'./neuron_info.jsp?neuron_name=H1-9'
p316
aS'./neuron_info.jsp?neuron_name=I5-1'
p317
aS'./neuron_info.jsp?neuron_name=I5-10'
p318
aS'./neuron_info.jsp?neuron_name=I5-11'
p319
aS'./neuron_info.jsp?neuron_name=I5-12'
p320
aS'./neuron_info.jsp?neuron_name=I5-13'
p321
aS'./neuron_info.jsp?neuron_name=I5-14'
p322
aS'./neuron_info.jsp?neuron_name=I5-15'
p323
aS'./neuron_info.jsp?neuron_name=I5-16'
p324
aS'./neuron_info.jsp?neuron_name=I5-17'
p325
aS'./neuron_info.jsp?neuron_name=I5-18'
p326
aS'./neuron_info.jsp?neuron_name=I5-2'
p327
aS'./neuron_info.jsp?neuron_name=I5-20'
p328
aS'./neuron_info.jsp?neuron_name=I5-21'
p329
aS'./neuron_info.jsp?neuron_name=I5-22'
p330
aS'./neuron_info.jsp?neuron_name=I5-23'
p331
aS'./neuron_info.jsp?neuron_name=I5-24'
p332
aS'./neuron_info.jsp?neuron_name=I5-25'
p333
aS'./neuron_info.jsp?neuron_name=I5-26'
p334
aS'./neuron_info.jsp?neuron_name=I5-27'
p335
aS'./neuron_info.jsp?neuron_name=I5-28'
p336
aS'./neuron_info.jsp?neuron_name=I5-3'
p337
aS'./neuron_info.jsp?neuron_name=I5-4'
p338
aS'./neuron_info.jsp?neuron_name=I5-5'
p339
aS'./neuron_info.jsp?neuron_name=I5-6'
p340
aS'./neuron_info.jsp?neuron_name=I5-7'
p341
aS'./neuron_info.jsp?neuron_name=I5-8'
p342
aS'./neuron_info.jsp?neuron_name=I5-9'
p343
aS'./neuron_info.jsp?neuron_name=No40-A-TTX'
p344
aS'./neuron_info.jsp?neuron_name=control-16-wt'
p345
aS'./neuron_info.jsp?neuron_name=knock-in-9'
p346
aS'./neuron_info.jsp?neuron_name=219-1'
p347
aS'./neuron_info.jsp?neuron_name=291-1'
p348
aS'./neuron_info.jsp?neuron_name=72-1'
p349
aS'./neuron_info.jsp?neuron_name=13B-40x'
p350
aS'./neuron_info.jsp?neuron_name=13D-40x'
p351
aS'./neuron_info.jsp?neuron_name=13E-40x'
p352
aS'./neuron_info.jsp?neuron_name=13F-40x'
p353
aS'./neuron_info.jsp?neuron_name=13G-40x'
p354
aS'./neuron_info.jsp?neuron_name=13I-40x'
p355
aS'./neuron_info.jsp?neuron_name=13J-40x'
p356
aS'./neuron_info.jsp?neuron_name=16D'
p357
aS'./neuron_info.jsp?neuron_name=16E'
p358
aS'./neuron_info.jsp?neuron_name=16G'
p359
aS'./neuron_info.jsp?neuron_name=16I'
p360
aS'./neuron_info.jsp?neuron_name=16J'
p361
aS'./neuron_info.jsp?neuron_name=16K'
p362
aS'./neuron_info.jsp?neuron_name=16L'
p363
aS'./neuron_info.jsp?neuron_name=16M'
p364
aS'./neuron_info.jsp?neuron_name=18A'
p365
aS'./neuron_info.jsp?neuron_name=18B'
p366
aS'./neuron_info.jsp?neuron_name=18D'
p367
aS'./neuron_info.jsp?neuron_name=18F'
p368
aS'./neuron_info.jsp?neuron_name=18H'
p369
aS'./neuron_info.jsp?neuron_name=18I'
p370
aS'./neuron_info.jsp?neuron_name=18J'
p371
aS'./neuron_info.jsp?neuron_name=20D-40x'
p372
aS'./neuron_info.jsp?neuron_name=20F-40x'
p373
aS'./neuron_info.jsp?neuron_name=20G-40x'
p374
aS'./neuron_info.jsp?neuron_name=20H-40x'
p375
aS'./neuron_info.jsp?neuron_name=20J-40x'
p376
aS'./neuron_info.jsp?neuron_name=21A-40x'
p377
aS'./neuron_info.jsp?neuron_name=21B-40x'
p378
aS'./neuron_info.jsp?neuron_name=21C-40x'
p379
aS'./neuron_info.jsp?neuron_name=21E-40x'
p380
aS'./neuron_info.jsp?neuron_name=21F-40x'
p381
aS'./neuron_info.jsp?neuron_name=21J-40x'
p382
aS'./neuron_info.jsp?neuron_name=21K-40x'
p383
aS'./neuron_info.jsp?neuron_name=24A-40x'
p384
aS'./neuron_info.jsp?neuron_name=24B-40x'
p385
aS'./neuron_info.jsp?neuron_name=24C-40x'
p386
aS'./neuron_info.jsp?neuron_name=24D-40x'
p387
aS'./neuron_info.jsp?neuron_name=24E-40x'
p388
aS'./neuron_info.jsp?neuron_name=24F-40x'
p389
aS'./neuron_info.jsp?neuron_name=24G-40x'
p390
aS'./neuron_info.jsp?neuron_name=24I-40x'
p391
aS'./neuron_info.jsp?neuron_name=24J-40x'
p392
aS'./neuron_info.jsp?neuron_name=32A-40x'
p393
aS'./neuron_info.jsp?neuron_name=32B-40x'
p394
aS'./neuron_info.jsp?neuron_name=32C-40x'
p395
aS'./neuron_info.jsp?neuron_name=32D-40x'
p396
aS'./neuron_info.jsp?neuron_name=32E-40x'
p397
aS'./neuron_info.jsp?neuron_name=32F-40x'
p398
aS'./neuron_info.jsp?neuron_name=32G-40x'
p399
aS'./neuron_info.jsp?neuron_name=32H-40x'
p400
aS'./neuron_info.jsp?neuron_name=32I-40x'
p401
aS'./neuron_info.jsp?neuron_name=32J-40x'
p402
aS'./neuron_info.jsp?neuron_name=45B-40x'
p403
aS'./neuron_info.jsp?neuron_name=45E-40x'
p404
aS'./neuron_info.jsp?neuron_name=45F-40x'
p405
aS'./neuron_info.jsp?neuron_name=45H-40x'
p406
aS'./neuron_info.jsp?neuron_name=45I-40x'
p407
aS'./neuron_info.jsp?neuron_name=45J-40x'
p408
aS'./neuron_info.jsp?neuron_name=46A-40x'
p409
aS'./neuron_info.jsp?neuron_name=46B-40x'
p410
aS'./neuron_info.jsp?neuron_name=46C-40x'
p411
aS'./neuron_info.jsp?neuron_name=46D-40x'
p412
aS'./neuron_info.jsp?neuron_name=46F-40x'
p413
aS'./neuron_info.jsp?neuron_name=46G-40x'
p414
aS'./neuron_info.jsp?neuron_name=46H-40x'
p415
aS'./neuron_info.jsp?neuron_name=4A-40x'
p416
aS'./neuron_info.jsp?neuron_name=4C-40x'
p417
aS'./neuron_info.jsp?neuron_name=4D-40x'
p418
aS'./neuron_info.jsp?neuron_name=4G-40x'
p419
aS'./neuron_info.jsp?neuron_name=4H-40x'
p420
aS'./neuron_info.jsp?neuron_name=51B-40x'
p421
aS'./neuron_info.jsp?neuron_name=51G-40x'
p422
aS'./neuron_info.jsp?neuron_name=52A-40x'
p423
aS'./neuron_info.jsp?neuron_name=52B-40x'
p424
aS'./neuron_info.jsp?neuron_name=52D-40x'
p425
aS'./neuron_info.jsp?neuron_name=52E-40x'
p426
aS'./neuron_info.jsp?neuron_name=52I-40x'
p427
aS'./neuron_info.jsp?neuron_name=52J-40x'
p428
aS'./neuron_info.jsp?neuron_name=53A'
p429
aS'./neuron_info.jsp?neuron_name=53B'
p430
aS'./neuron_info.jsp?neuron_name=53C'
p431
aS'./neuron_info.jsp?neuron_name=53E'
p432
aS'./neuron_info.jsp?neuron_name=53F'
p433
aS'./neuron_info.jsp?neuron_name=53G'
p434
aS'./neuron_info.jsp?neuron_name=53H'
p435
aS'./neuron_info.jsp?neuron_name=53I'
p436
aS'./neuron_info.jsp?neuron_name=53J'
p437
aS'./neuron_info.jsp?neuron_name=55A'
p438
aS'./neuron_info.jsp?neuron_name=55B'
p439
aS'./neuron_info.jsp?neuron_name=55C'
p440
aS'./neuron_info.jsp?neuron_name=55D-40x'
p441
aS'./neuron_info.jsp?neuron_name=55E-40x'
p442
aS'./neuron_info.jsp?neuron_name=55F-40x'
p443
aS'./neuron_info.jsp?neuron_name=55G-40x'
p444
aS'./neuron_info.jsp?neuron_name=55H-40x'
p445
aS'./neuron_info.jsp?neuron_name=55I-40x'
p446
aS'./neuron_info.jsp?neuron_name=55J-40x'
p447
aS'./neuron_info.jsp?neuron_name=58-A-40x'
p448
aS'./neuron_info.jsp?neuron_name=58C-40x'
p449
aS'./neuron_info.jsp?neuron_name=58D-40X'
p450
aS'./neuron_info.jsp?neuron_name=58E-40x'
p451
aS'./neuron_info.jsp?neuron_name=58G-40x'
p452
aS'./neuron_info.jsp?neuron_name=58H-40x'
p453
aS'./neuron_info.jsp?neuron_name=58I-40x'
p454
aS'./neuron_info.jsp?neuron_name=58J-40x'
p455
aS'./neuron_info.jsp?neuron_name=59A-40x'
p456
aS'./neuron_info.jsp?neuron_name=59B-40x'
p457
aS'./neuron_info.jsp?neuron_name=59C-40x'
p458
aS'./neuron_info.jsp?neuron_name=59F-40x'
p459
aS'./neuron_info.jsp?neuron_name=59I-40x'
p460
aS'./neuron_info.jsp?neuron_name=60A-40x'
p461
aS'./neuron_info.jsp?neuron_name=60B-40x'
p462
aS'./neuron_info.jsp?neuron_name=60C-40x'
p463
aS'./neuron_info.jsp?neuron_name=60E-40x'
p464
aS'./neuron_info.jsp?neuron_name=60F-40x'
p465
aS'./neuron_info.jsp?neuron_name=60G-40x'
p466
aS'./neuron_info.jsp?neuron_name=61B-40x'
p467
aS'./neuron_info.jsp?neuron_name=61D-40x'
p468
aS'./neuron_info.jsp?neuron_name=61E-40x'
p469
aS'./neuron_info.jsp?neuron_name=61F-40x'
p470
aS'./neuron_info.jsp?neuron_name=61G-40x'
p471
aS'./neuron_info.jsp?neuron_name=61H-40x'
p472
aS'./neuron_info.jsp?neuron_name=61I-40x'
p473
aS'./neuron_info.jsp?neuron_name=61J-40x'
p474
aS'./neuron_info.jsp?neuron_name=62A-40x'
p475
aS'./neuron_info.jsp?neuron_name=62C-40x'
p476
aS'./neuron_info.jsp?neuron_name=62D-40x'
p477
aS'./neuron_info.jsp?neuron_name=62E-40x'
p478
aS'./neuron_info.jsp?neuron_name=62F-40x'
p479
aS'./neuron_info.jsp?neuron_name=62H-40x'
p480
aS'./neuron_info.jsp?neuron_name=62I-40x'
p481
aS'./neuron_info.jsp?neuron_name=62J-40x'
p482
aS'./neuron_info.jsp?neuron_name=8A-40x'
p483
aS'./neuron_info.jsp?neuron_name=8D-40x'
p484
aS'./neuron_info.jsp?neuron_name=8E-40x'
p485
aS'./neuron_info.jsp?neuron_name=8F-40x'
p486
aS'./neuron_info.jsp?neuron_name=8J-40x'
p487
aS'./neuron_info.jsp?neuron_name=Ad-40x'
p488
aS'./neuron_info.jsp?neuron_name=AdGo-neuronB'
p489
aS'./neuron_info.jsp?neuron_name=AdGoH-neuronA'
p490
aS'./neuron_info.jsp?neuron_name=AdGoH-neuronC'
p491
aS'./neuron_info.jsp?neuron_name=AdGoH-neuronD'
p492
aS'./neuron_info.jsp?neuron_name=AdGoH-neuronF'
p493
aS'./neuron_info.jsp?neuron_name=AdGoH-neuronG'
p494
aS'./neuron_info.jsp?neuron_name=AdGoH-neuronI'
p495
aS'./neuron_info.jsp?neuron_name=AdGoI-neuronA'
p496
aS'./neuron_info.jsp?neuron_name=AdGoI-neuronB'
p497
aS'./neuron_info.jsp?neuron_name=AdGoI-neuronC'
p498
aS'./neuron_info.jsp?neuron_name=AdGoI-neuronD'
p499
aS'./neuron_info.jsp?neuron_name=AdGoI-neuronE'
p500
aS'./neuron_info.jsp?neuron_name=AdGoI-neuronF'
p501
a.